; Function Attrs: nounwind sspstrong uwtable
define internal range(i64 1, 0) i64 @rb_hash_hash(i64 noundef %0) #0 {
  %2 = alloca i64, align 8
  %3 = inttoptr i64 %0 to ptr
  %4 = load i64, ptr %3, align 8, !tbaa !11
  %5 = and i64 %4, 32768
  %.not.i.i = icmp eq i64 %5, 0
  br i1 %.not.i.i, label %6, label %9

6:                                                ; preds = %1
  %7 = lshr i64 %4, 16
  %8 = and i64 %7, 15
  br label %RHASH_SIZE.exit

9:                                                ; preds = %1
  %10 = add i64 %0, 24
  %11 = inttoptr i64 %10 to ptr
  %12 = getelementptr inbounds nuw i8, ptr %11, i64 16
  %13 = load i64, ptr %12, align 8, !tbaa !49
  br label %RHASH_SIZE.exit

RHASH_SIZE.exit:                                  ; preds = %6, %9
  %.0.i = phi i64 [ %8, %6 ], [ %13, %9 ]
  call void @llvm.lifetime.start.p0(i64 8, ptr nonnull %2) #28
  %14 = tail call i64 @rb_hash_start(i64 noundef %.0.i) #28
  %15 = tail call i64 @rb_st_hash_uint(i64 noundef %14, i64 noundef ptrtoint (ptr @rb_hash_hash to i64)) #33
  store i64 %15, ptr %2, align 8, !tbaa !7
  %.not = icmp eq i64 %.0.i, 0
  br i1 %.not, label %18, label %16

16:                                               ; preds = %RHASH_SIZE.exit
  %17 = ptrtoint ptr %2 to i64
  call void @rb_hash_foreach(i64 noundef %0, ptr noundef @hash_i, i64 noundef %17)
  %.pre = load i64, ptr %2, align 8, !tbaa !7
  br label %18

18:                                               ; preds = %16, %RHASH_SIZE.exit
  %19 = phi i64 [ %.pre, %16 ], [ %15, %RHASH_SIZE.exit ]
  %20 = call i64 @rb_st_hash_end(i64 noundef %19) #33
  %21 = and i64 %20, 4611686018427387903
  %22 = icmp slt i64 %20, 0
  %masksel.i = select i1 %22, i64 -4611686018427387904, i64 0
  %.0.i4 = or disjoint i64 %masksel.i, %21
  %23 = shl nsw i64 %.0.i4, 1
  %24 = or disjoint i64 %23, 1
  call void @llvm.lifetime.end.p0(i64 8, ptr nonnull %2) #28
  ret i64 %24
}